
phase5.o：     文件格式 elf32-i386


Disassembly of section .text:

00000000 <UXDgNRhUFU>:
   0:	55                   	push   %ebp
   1:	89 e5                	mov    %esp,%ebp
   3:	83 ec 20             	sub    $0x20,%esp
   6:	c7 45 e5 61 4d 49 65 	movl   $0x65494d61,-0x1b(%ebp)
   d:	c7 45 e9 50 4e 65 56 	movl   $0x56654e50,-0x17(%ebp)
  14:	c7 45 ed 69 6e 45 45 	movl   $0x45456e69,-0x13(%ebp)
  1b:	c7 45 f1 56 4a 61 7a 	movl   $0x7a614a56,-0xf(%ebp)
  22:	c7 45 f5 69 52 5a 46 	movl   $0x465a5269,-0xb(%ebp)
  29:	66 c7 45 f9 6c 73    	movw   $0x736c,-0x7(%ebp)
  2f:	c6 45 fb 00          	movb   $0x0,-0x5(%ebp)
  33:	c7 45 fc 17 00 00 00 	movl   $0x17,-0x4(%ebp)
  3a:	83 7d 08 00          	cmpl   $0x0,0x8(%ebp)
  3e:	78 15                	js     55 <UXDgNRhUFU+0x55>
  40:	8b 45 08             	mov    0x8(%ebp),%eax
  43:	3b 45 fc             	cmp    -0x4(%ebp),%eax
  46:	7d 0d                	jge    55 <UXDgNRhUFU+0x55>
  48:	8d 55 e5             	lea    -0x1b(%ebp),%edx
  4b:	8b 45 08             	mov    0x8(%ebp),%eax
  4e:	01 d0                	add    %edx,%eax
  50:	0f b6 00             	movzbl (%eax),%eax
  53:	eb 05                	jmp    5a <UXDgNRhUFU+0x5a>
  55:	b8 00 00 00 00       	mov    $0x0,%eax
  5a:	c9                   	leave  
  5b:	c3                   	ret    

0000005c <transform_code>:
  5c:	55                   	push   %ebp
  5d:	89 e5                	mov    %esp,%ebp
  5f:	8b 45 0c             	mov    0xc(%ebp),%eax
  62:	8b 04 85 00 00 00 00 	mov    0x0(,%eax,4),%eax
  69:	83 e0 07             	and    $0x7,%eax
  6c:	83 f8 07             	cmp    $0x7,%eax
  6f:	77 74                	ja     e5 <transform_code+0x89>
  71:	8b 04 85 48 00 00 00 	mov    0x48(,%eax,4),%eax
  78:	ff e0                	jmp    *%eax
  7a:	f7 55 08             	notl   0x8(%ebp)
  7d:	eb 6a                	jmp    e9 <transform_code+0x8d>
  7f:	8b 45 0c             	mov    0xc(%ebp),%eax
  82:	8b 04 85 00 00 00 00 	mov    0x0(,%eax,4),%eax
  89:	83 e0 03             	and    $0x3,%eax
  8c:	89 c1                	mov    %eax,%ecx
  8e:	d3 7d 08             	sarl   %cl,0x8(%ebp)
  91:	eb 56                	jmp    e9 <transform_code+0x8d>
  93:	8b 45 0c             	mov    0xc(%ebp),%eax
  96:	8b 04 85 00 00 00 00 	mov    0x0(,%eax,4),%eax
  9d:	f7 d0                	not    %eax
  9f:	21 45 08             	and    %eax,0x8(%ebp)
  a2:	eb 45                	jmp    e9 <transform_code+0x8d>
  a4:	8b 45 0c             	mov    0xc(%ebp),%eax
  a7:	8b 04 85 00 00 00 00 	mov    0x0(,%eax,4),%eax
  ae:	c1 e0 08             	shl    $0x8,%eax
  b1:	09 45 08             	or     %eax,0x8(%ebp)
  b4:	eb 33                	jmp    e9 <transform_code+0x8d>
  b6:	8b 45 0c             	mov    0xc(%ebp),%eax
  b9:	8b 04 85 00 00 00 00 	mov    0x0(,%eax,4),%eax
  c0:	31 45 08             	xor    %eax,0x8(%ebp)
  c3:	eb 24                	jmp    e9 <transform_code+0x8d>
  c5:	8b 45 0c             	mov    0xc(%ebp),%eax
  c8:	8b 04 85 00 00 00 00 	mov    0x0(,%eax,4),%eax
  cf:	f7 d0                	not    %eax
  d1:	09 45 08             	or     %eax,0x8(%ebp)
  d4:	eb 13                	jmp    e9 <transform_code+0x8d>
  d6:	8b 45 0c             	mov    0xc(%ebp),%eax
  d9:	8b 04 85 00 00 00 00 	mov    0x0(,%eax,4),%eax
  e0:	01 45 08             	add    %eax,0x8(%ebp)
  e3:	eb 04                	jmp    e9 <transform_code+0x8d>
  e5:	f7 5d 08             	negl   0x8(%ebp)
  e8:	90                   	nop
  e9:	8b 45 08             	mov    0x8(%ebp),%eax
  ec:	5d                   	pop    %ebp
  ed:	c3                   	ret    

000000ee <generate_code>:
  ee:	55                   	push   %ebp
  ef:	89 e5                	mov    %esp,%ebp
  f1:	83 ec 10             	sub    $0x10,%esp
  f4:	8b 45 08             	mov    0x8(%ebp),%eax
  f7:	a3 00 00 00 00       	mov    %eax,0x0
  fc:	c7 45 fc 00 00 00 00 	movl   $0x0,-0x4(%ebp)
 103:	eb 1a                	jmp    11f <generate_code+0x31>
 105:	a1 00 00 00 00       	mov    0x0,%eax
 10a:	ff 75 fc             	pushl  -0x4(%ebp)
 10d:	50                   	push   %eax
 10e:	e8 fc ff ff ff       	call   10f <generate_code+0x21>
 113:	83 c4 08             	add    $0x8,%esp
 116:	a3 00 00 00 00       	mov    %eax,0x0
 11b:	83 45 fc 01          	addl   $0x1,-0x4(%ebp)
 11f:	8b 45 fc             	mov    -0x4(%ebp),%eax
 122:	83 f8 09             	cmp    $0x9,%eax
 125:	76 de                	jbe    105 <generate_code+0x17>
 127:	90                   	nop
 128:	c9                   	leave  
 129:	c3                   	ret    

0000012a <encode_1>:
 12a:	55                   	push   %ebp
 12b:	89 e5                	mov    %esp,%ebp
 12d:	83 ec 18             	sub    $0x18,%esp
 130:	83 ec 0c             	sub    $0xc,%esp
 133:	ff 75 08             	pushl  0x8(%ebp)
 136:	e8 fc ff ff ff       	call   137 <encode_1+0xd>
 13b:	83 c4 10             	add    $0x10,%esp
 13e:	89 45 f0             	mov    %eax,-0x10(%ebp)
 141:	c7 45 f4 00 00 00 00 	movl   $0x0,-0xc(%ebp)
 148:	eb 5b                	jmp    1a5 <encode_1+0x7b>
 14a:	8b 55 f4             	mov    -0xc(%ebp),%edx
 14d:	8b 45 08             	mov    0x8(%ebp),%eax
 150:	01 d0                	add    %edx,%eax
 152:	0f b6 00             	movzbl (%eax),%eax
 155:	0f be c0             	movsbl %al,%eax
 158:	0f b6 80 00 00 00 00 	movzbl 0x0(%eax),%eax
 15f:	8b 15 00 00 00 00    	mov    0x0,%edx
 165:	31 d0                	xor    %edx,%eax
 167:	89 c1                	mov    %eax,%ecx
 169:	8b 55 f4             	mov    -0xc(%ebp),%edx
 16c:	8b 45 08             	mov    0x8(%ebp),%eax
 16f:	01 d0                	add    %edx,%eax
 171:	83 e1 7f             	and    $0x7f,%ecx
 174:	89 ca                	mov    %ecx,%edx
 176:	88 10                	mov    %dl,(%eax)
 178:	8b 55 f4             	mov    -0xc(%ebp),%edx
 17b:	8b 45 08             	mov    0x8(%ebp),%eax
 17e:	01 d0                	add    %edx,%eax
 180:	0f b6 00             	movzbl (%eax),%eax
 183:	3c 1f                	cmp    $0x1f,%al
 185:	7e 0f                	jle    196 <encode_1+0x6c>
 187:	8b 55 f4             	mov    -0xc(%ebp),%edx
 18a:	8b 45 08             	mov    0x8(%ebp),%eax
 18d:	01 d0                	add    %edx,%eax
 18f:	0f b6 00             	movzbl (%eax),%eax
 192:	3c 7f                	cmp    $0x7f,%al
 194:	75 0b                	jne    1a1 <encode_1+0x77>
 196:	8b 55 f4             	mov    -0xc(%ebp),%edx
 199:	8b 45 08             	mov    0x8(%ebp),%eax
 19c:	01 d0                	add    %edx,%eax
 19e:	c6 00 3f             	movb   $0x3f,(%eax)
 1a1:	83 45 f4 01          	addl   $0x1,-0xc(%ebp)
 1a5:	8b 45 f4             	mov    -0xc(%ebp),%eax
 1a8:	3b 45 f0             	cmp    -0x10(%ebp),%eax
 1ab:	7c 9d                	jl     14a <encode_1+0x20>
 1ad:	8b 45 f0             	mov    -0x10(%ebp),%eax
 1b0:	c9                   	leave  
 1b1:	c3                   	ret    

000001b2 <encode_2>:
 1b2:	55                   	push   %ebp
 1b3:	89 e5                	mov    %esp,%ebp
 1b5:	83 ec 18             	sub    $0x18,%esp
 1b8:	83 ec 0c             	sub    $0xc,%esp
 1bb:	ff 75 08             	pushl  0x8(%ebp)
 1be:	e8 fc ff ff ff       	call   1bf <encode_2+0xd>
 1c3:	83 c4 10             	add    $0x10,%esp
 1c6:	89 45 f0             	mov    %eax,-0x10(%ebp)
 1c9:	c7 45 f4 00 00 00 00 	movl   $0x0,-0xc(%ebp)
 1d0:	eb 5a                	jmp    22c <encode_2+0x7a>
 1d2:	8b 55 f4             	mov    -0xc(%ebp),%edx
 1d5:	8b 45 08             	mov    0x8(%ebp),%eax
 1d8:	01 d0                	add    %edx,%eax
 1da:	0f b6 00             	movzbl (%eax),%eax
 1dd:	0f be c0             	movsbl %al,%eax
 1e0:	0f b6 80 00 00 00 00 	movzbl 0x0(%eax),%eax
 1e7:	8b 15 00 00 00 00    	mov    0x0,%edx
 1ed:	8d 0c 10             	lea    (%eax,%edx,1),%ecx
 1f0:	8b 55 f4             	mov    -0xc(%ebp),%edx
 1f3:	8b 45 08             	mov    0x8(%ebp),%eax
 1f6:	01 d0                	add    %edx,%eax
 1f8:	83 e1 7f             	and    $0x7f,%ecx
 1fb:	89 ca                	mov    %ecx,%edx
 1fd:	88 10                	mov    %dl,(%eax)
 1ff:	8b 55 f4             	mov    -0xc(%ebp),%edx
 202:	8b 45 08             	mov    0x8(%ebp),%eax
 205:	01 d0                	add    %edx,%eax
 207:	0f b6 00             	movzbl (%eax),%eax
 20a:	3c 1f                	cmp    $0x1f,%al
 20c:	7e 0f                	jle    21d <encode_2+0x6b>
 20e:	8b 55 f4             	mov    -0xc(%ebp),%edx
 211:	8b 45 08             	mov    0x8(%ebp),%eax
 214:	01 d0                	add    %edx,%eax
 216:	0f b6 00             	movzbl (%eax),%eax
 219:	3c 7f                	cmp    $0x7f,%al
 21b:	75 0b                	jne    228 <encode_2+0x76>
 21d:	8b 55 f4             	mov    -0xc(%ebp),%edx
 220:	8b 45 08             	mov    0x8(%ebp),%eax
 223:	01 d0                	add    %edx,%eax
 225:	c6 00 2a             	movb   $0x2a,(%eax)
 228:	83 45 f4 01          	addl   $0x1,-0xc(%ebp)
 22c:	8b 45 f4             	mov    -0xc(%ebp),%eax
 22f:	3b 45 f0             	cmp    -0x10(%ebp),%eax
 232:	7c 9e                	jl     1d2 <encode_2+0x20>
 234:	8b 45 f0             	mov    -0x10(%ebp),%eax
 237:	c9                   	leave  
 238:	c3                   	ret    

00000239 <do_phase>:
 239:	55                   	push   %ebp
 23a:	89 e5                	mov    %esp,%ebp
 23c:	83 ec 08             	sub    $0x8,%esp
 23f:	68 b5 00 00 00       	push   $0xb5
 244:	e8 fc ff ff ff       	call   245 <do_phase+0xc>
 249:	83 c4 04             	add    $0x4,%esp
 24c:	a1 00 00 00 00       	mov    0x0,%eax
 251:	83 ec 0c             	sub    $0xc,%esp
 254:	68 00 00 00 00       	push   $0x0
 259:	ff d0                	call   *%eax
 25b:	83 c4 10             	add    $0x10,%esp
 25e:	83 ec 0c             	sub    $0xc,%esp
 261:	68 00 00 00 00       	push   $0x0
 266:	e8 fc ff ff ff       	call   267 <do_phase+0x2e>
 26b:	83 c4 10             	add    $0x10,%esp
 26e:	90                   	nop
 26f:	c9                   	leave  
 270:	c3                   	ret    
